target datalayout = "e-m:e-p270:32:32-p271:32:32-p272:64:64-i64:64-i128:128-f80:128-n8:16:32:64-S128"
target triple = "x86_64-pc-linux-gnu"

%struct._GError = type { i32, i32, ptr }

@main_statusbar = external global ptr, align 8
@.str.49 = private unnamed_addr constant [34 x i8] c"Failed to create edit thread: %s\0A\00", align 1

; Function Attrs: nounwind uwtable
define dso_local void @display_edit_note(ptr noundef %0) #0 {
  %2 = alloca ptr, align 8
  %3 = alloca ptr, align 8
  %4 = alloca i32, align 4
  %5 = alloca i32, align 4
  store ptr %0, ptr %2, align 8
  call void @llvm.lifetime.start.p0(i64 8, ptr %3) #11
  store ptr null, ptr %3, align 8
  call void @llvm.lifetime.start.p0(i64 4, ptr %4) #11
  store i32 0, ptr %4, align 4
  %6 = load ptr, ptr %2, align 8
  %7 = icmp ne ptr %6, null
  br i1 %7, label %9, label %8

8:                                                ; preds = %1
  store i32 1, ptr %5, align 4
  br label %27

9:                                                ; preds = %1
  %10 = load ptr, ptr @main_statusbar, align 8
  %11 = call i64 @gtk_statusbar_get_type() #12
  %12 = call ptr @g_type_check_instance_cast(ptr noundef %10, i64 noundef %11)
  call void @gtk_statusbar_pop(ptr noundef %12, i32 noundef 2)
  %13 = load ptr, ptr @main_statusbar, align 8
  %14 = call i64 @gtk_statusbar_get_type() #12
  %15 = call ptr @g_type_check_instance_cast(ptr noundef %13, i64 noundef %14)
  %16 = load ptr, ptr %2, align 8
  %17 = call i32 @gtk_statusbar_push(ptr noundef %15, i32 noundef 2, ptr noundef %16)
  store i32 %17, ptr %4, align 4
  %18 = load i32, ptr %4, align 4
  %19 = sext i32 %18 to i64
  %20 = inttoptr i64 %19 to ptr
  %21 = call zeroext i1 @sview_thread_new(ptr noundef @_editing_thr, ptr noundef %20, ptr noundef %3)
  br i1 %21, label %26, label %22

22:                                               ; preds = %9
  %23 = load ptr, ptr %3, align 8
  %24 = getelementptr inbounds nuw %struct._GError, ptr %23, i32 0, i32 2
  %25 = load ptr, ptr %24, align 8
  call void (ptr, ...) @g_printerr(ptr noundef @.str.49, ptr noundef %25)
  br label %26

26:                                               ; preds = %22, %9
  store i32 1, ptr %5, align 4
  br label %27

27:                                               ; preds = %26, %8
  call void @llvm.lifetime.end.p0(i64 4, ptr %4) #11
  call void @llvm.lifetime.end.p0(i64 8, ptr %3) #11
  ret void
}