; Function Attrs: nounwind uwtable
define dso_local void @display_edit_note(ptr noundef %0) local_unnamed_addr #2 {
  %2 = alloca ptr, align 8
  call void @llvm.lifetime.start.p0(i64 8, ptr nonnull %2) #16
  store ptr null, ptr %2, align 8
  %.not = icmp eq ptr %0, null
  br i1 %.not, label %17, label %3

3:                                                ; preds = %1
  %4 = load ptr, ptr @main_statusbar, align 8
  %5 = tail call i64 @gtk_statusbar_get_type() #17
  %6 = tail call ptr @g_type_check_instance_cast(ptr noundef %4, i64 noundef %5) #16
  tail call void @gtk_statusbar_pop(ptr noundef %6, i32 noundef 2) #16
  %7 = load ptr, ptr @main_statusbar, align 8
  %8 = tail call ptr @g_type_check_instance_cast(ptr noundef %7, i64 noundef %5) #16
  %9 = tail call i32 @gtk_statusbar_push(ptr noundef %8, i32 noundef 2, ptr noundef nonnull %0) #16
  %10 = sext i32 %9 to i64
  %11 = inttoptr i64 %10 to ptr
  %12 = call zeroext i1 @sview_thread_new(ptr noundef nonnull @_editing_thr, ptr noundef %11, ptr noundef nonnull %2) #16
  br i1 %12, label %17, label %13

13:                                               ; preds = %3
  %14 = load ptr, ptr %2, align 8
  %15 = getelementptr inbounds nuw i8, ptr %14, i64 8
  %16 = load ptr, ptr %15, align 8
  call void (ptr, ...) @g_printerr(ptr noundef nonnull @.str.49, ptr noundef %16) #16
  br label %17

17:                                               ; preds = %3, %13, %1
  call void @llvm.lifetime.end.p0(i64 8, ptr nonnull %2) #16
  ret void
}